Certificate:
    Data:
        Version: 3 (0x2)
        Serial Number: 2 (0x2)
        Signature Algorithm: sha256WithRSAEncryption
        Issuer: C=cn, ST=tj, L=tj, O=nku
        Validity
            Not Before: May  4 01:34:26 2022 GMT
            Not After : May  4 01:34:26 2023 GMT
        Subject: C=cn, ST=tj, O=nku, CN=liu
        Subject Public Key Info:
            Public Key Algorithm: rsaEncryption
                RSA Public-Key: (2048 bit)
                Modulus:
                    00:ba:49:7c:71:f9:90:1b:75:5f:8b:c1:2b:54:3e:
                    92:d0:98:b6:9a:ab:1f:5b:14:0e:e9:b5:56:c8:4e:
                    d4:8e:ae:46:14:0e:bd:63:4e:cc:59:e4:9a:5d:aa:
                    dd:00:bf:64:e6:54:70:05:15:48:a0:18:a8:c2:38:
                    0c:58:ac:a5:22:29:d1:26:04:0c:46:36:61:ce:b4:
                    3f:d9:92:cc:c5:b5:c1:96:8c:3f:e6:67:f1:70:e5:
                    e9:29:8f:90:6c:5f:bc:45:0b:b3:47:f0:eb:e1:40:
                    f5:a3:34:c7:46:ba:86:7a:b3:ed:f1:a3:1b:b3:d1:
                    04:ee:ac:a9:87:37:a8:6e:df:8b:f4:36:f6:44:c0:
                    83:f9:d6:28:1a:4f:d5:ca:27:2c:db:0a:c2:86:75:
                    cf:15:25:7e:1c:78:4f:66:a6:98:2d:06:dd:44:c2:
                    13:9a:64:8b:32:f3:82:0e:95:a4:5f:4c:9e:41:a2:
                    07:66:40:e6:6d:c7:93:ad:04:42:4a:70:58:ac:c7:
                    40:f8:39:6f:ad:a9:27:6a:7d:cf:a0:8d:93:20:53:
                    5c:bb:15:a2:24:ab:74:10:5a:e9:3b:84:d9:76:a7:
                    09:c4:44:27:da:8d:cc:9c:6e:ae:6c:5c:4d:8b:43:
                    6f:80:42:f5:ea:0a:48:cb:a2:cf:f4:82:56:22:8e:
                    a2:3f
                Exponent: 65537 (0x10001)
        X509v3 extensions:
            X509v3 Basic Constraints: 
                CA:FALSE
            Netscape Comment: 
                OpenSSL Generated Certificate
            X509v3 Subject Key Identifier: 
                8D:D5:54:41:77:D8:FD:B0:A4:14:64:B1:0C:82:56:41:54:6B:38:7B
            X509v3 Authority Key Identifier: 
                keyid:AC:6E:D2:49:1E:A3:94:0A:A9:12:A7:B7:B4:16:79:28:0C:6B:A3:2E

    Signature Algorithm: sha256WithRSAEncryption
         01:8f:dd:60:07:f4:29:a4:ca:90:57:b5:33:d7:84:26:70:30:
         ea:da:47:26:64:ce:f2:a9:47:ca:b9:aa:1a:74:15:95:17:1d:
         9d:28:fa:a0:58:4e:ba:a0:f1:10:8b:2b:d2:ab:1f:ec:80:b5:
         a0:7f:61:8f:a9:3a:59:66:06:cc:cc:fd:d4:7b:a1:33:aa:03:
         48:64:20:e1:69:11:86:88:4c:c3:f8:c1:29:d8:13:a9:8e:4f:
         12:a8:a1:6d:16:7d:be:92:12:d0:55:8b:dd:63:97:6e:94:93:
         54:cb:ac:a0:ee:68:84:f0:4a:df:33:fd:3e:47:ac:a2:90:1c:
         14:9a:cb:71:ba:16:57:80:3c:ca:65:a0:f2:b0:60:7d:30:29:
         af:45:e7:bf:59:36:d1:98:b2:9e:03:55:76:d2:75:3f:92:e5:
         e2:84:f6:97:e7:e2:d2:b3:a8:66:be:b8:6b:43:c5:99:6c:26:
         c2:88:3e:55:4a:5d:de:1d:c1:4c:fa:33:fa:bc:64:f0:6e:87:
         d5:54:2c:a6:8d:7d:2d:46:eb:c2:ef:1a:ff:42:4b:ff:f6:54:
         bb:1b:26:96:5e:31:c4:92:c0:63:b8:9b:e4:67:eb:a9:15:3d:
         17:fd:10:ac:a2:1d:3a:4f:76:e9:35:4a:21:88:d7:0d:80:b5:
         28:1c:e4:83
-----BEGIN CERTIFICATE-----
MIIDYTCCAkmgAwIBAgIBAjANBgkqhkiG9w0BAQsFADA1MQswCQYDVQQGEwJjbjEL
MAkGA1UECAwCdGoxCzAJBgNVBAcMAnRqMQwwCgYDVQQKDANua3UwHhcNMjIwNTA0
MDEzNDI2WhcNMjMwNTA0MDEzNDI2WjA2MQswCQYDVQQGEwJjbjELMAkGA1UECAwC
dGoxDDAKBgNVBAoMA25rdTEMMAoGA1UEAwwDbGl1MIIBIjANBgkqhkiG9w0BAQEF
AAOCAQ8AMIIBCgKCAQEAukl8cfmQG3Vfi8ErVD6S0Ji2mqsfWxQO6bVWyE7Ujq5G
FA69Y07MWeSaXardAL9k5lRwBRVIoBiowjgMWKylIinRJgQMRjZhzrQ/2ZLMxbXB
low/5mfxcOXpKY+QbF+8RQuzR/Dr4UD1ozTHRrqGerPt8aMbs9EE7qyphzeobt+L
9Db2RMCD+dYoGk/Vyics2wrChnXPFSV+HHhPZqaYLQbdRMITmmSLMvOCDpWkX0ye
QaIHZkDmbceTrQRCSnBYrMdA+Dlvraknan3PoI2TIFNcuxWiJKt0EFrpO4TZdqcJ
xEQn2o3MnG6ubFxNi0NvgEL16gpIy6LP9IJWIo6iPwIDAQABo3sweTAJBgNVHRME
AjAAMCwGCWCGSAGG+EIBDQQfFh1PcGVuU1NMIEdlbmVyYXRlZCBDZXJ0aWZpY2F0
ZTAdBgNVHQ4EFgQUjdVUQXfY/bCkFGSxDIJWQVRrOHswHwYDVR0jBBgwFoAUrG7S
SR6jlAqpEqe3tBZ5KAxroy4wDQYJKoZIhvcNAQELBQADggEBAAGP3WAH9CmkypBX
tTPXhCZwMOraRyZkzvKpR8q5qhp0FZUXHZ0o+qBYTrqg8RCLK9KrH+yAtaB/YY+p
OllmBszM/dR7oTOqA0hkIOFpEYaITMP4wSnYE6mOTxKooW0Wfb6SEtBVi91jl26U
k1TLrKDuaITwSt8z/T5HrKKQHBSay3G6FleAPMploPKwYH0wKa9F579ZNtGYsp4D
VXbSdT+S5eKE9pfn4tKzqGa+uGtDxZlsJsKIPlVKXd4dwUz6M/q8ZPBuh9VULKaN
fS1G68LvGv9CS//2VLsbJpZeMcSSwGO4m+Rn66kVPRf9EKyiHTpPduk1SiGI1w2A
tSgc5IM=
-----END CERTIFICATE-----

-----BEGIN RSA PRIVATE KEY-----
MIIEogIBAAKCAQEAukl8cfmQG3Vfi8ErVD6S0Ji2mqsfWxQO6bVWyE7Ujq5GFA69
Y07MWeSaXardAL9k5lRwBRVIoBiowjgMWKylIinRJgQMRjZhzrQ/2ZLMxbXBlow/
5mfxcOXpKY+QbF+8RQuzR/Dr4UD1ozTHRrqGerPt8aMbs9EE7qyphzeobt+L9Db2
RMCD+dYoGk/Vyics2wrChnXPFSV+HHhPZqaYLQbdRMITmmSLMvOCDpWkX0yeQaIH
ZkDmbceTrQRCSnBYrMdA+Dlvraknan3PoI2TIFNcuxWiJKt0EFrpO4TZdqcJxEQn
2o3MnG6ubFxNi0NvgEL16gpIy6LP9IJWIo6iPwIDAQABAoIBAFV52I8XescOoSuo
E/CQ0Z7DI65ubHHHD1yvJ0W73g4l6uPTK5VAl8V7flUSTFvGdk61Wb0LWgqTpgOP
4iJh/VdipqPx4Yvp8hD9Zfq4QBtL3artaXiYIxGxfL3kMNl5SBLKXpXY9vKhctRT
KEjM112/56MjO1fTxZaaRSNVJ4TPZuWlN4pp3Vhlh2sAzi6n0PzyWhycSoE8SgL6
uONnzgKJ8bBRVuxVYG9hGifzX/jHkyrXfY2Js7AkNNqO/CTPGHctw8wO4gg5MTvL
Z1g21FuVmlvn0SDSvI/YWlbK0kqTUlz7ANV0POivL6qkgfyptIdIDbys6AdHkNM8
LsYp8mECgYEA7lAq0OHUAyn1T6lJtdsyweYEZG7QHeoMvmiW66HEUmiccSwmPoNq
CaZsRQSFas2obZhUVC8KAZ2qqjpCc/JzGotJdgRFvixR2IaRgq4DZ8JIOw8xlv6m
O+utt76KHNkdrJK6m4bh/EwIBpKQ2tKWdiHTxxZxlifmKArD3QWIo28CgYEAyBzZ
PFDJjNJoZNypqVUSB5oM0e59tpHaQoxL36+YUs54XWrLdiunjjf4gqSFqAsPbl6w
OEScrO8Ioi+3k2IVddsV2wKj0Dp5spJCV5eXhY+f5mGcm+9xia13lY84yeatONtN
2vNi67XM/VvQq3xhIOVNwo7jvEzsRO6UV105RjECgYBx3DuYsUzqdhGOjgN5r9EA
czWGBqvInxqXnsD8s71o4jJcoAtlssPm+GyiTRaxgLEIK8+eqRrOytXPnyZA34W/
GO1wRXpM8j/og+Lh3OIjoN+B2DCJRAGIf4HwWEkEn3deDHy78iXmtSzgdwZehl78
8gyNAlwisc11NC+AWjR+YQKBgCnDA3736SgPXSP3fRzOmSWm+5fwKqIoTCFpQAhd
j+9wEWSFfhKaR6yBd8Zj6VTJgh3peuMzRnM8q1OVm70RUiM3Zpc/NMqm+XDP3zKC
e2evMpKUumc8kDhIUFWQ/yv7jRj5g4T3GCTS2wXg3Gp9WZPQ5up8gYBxmTlFhQW6
edJxAoGAOwusO3I0ZoxTg61EpbcG12QnAuFKqX71sEYlsfYyCk50lZr4+OcWkrhN
lJ2TpS5YQ5IJ55yvzw5ybP4LsDbbGOmoAijLSoaxbT265FpSVEqzRJtuDnwGR3ms
Q6lDI0bpibMkxJTuzcSL1Kd3aqheL+3OAoeTM/5PNFil2xGcDEk=
-----END RSA PRIVATE KEY-----
