Certificate:
    Data:
        Version: 3 (0x2)
        Serial Number: 1 (0x1)
        Signature Algorithm: sha256WithRSAEncryption
        Issuer: C=cn, ST=tj, L=tj, O=nku
        Validity
            Not Before: May  3 07:27:43 2022 GMT
            Not After : May  3 07:27:43 2023 GMT
        Subject: C=cn, ST=tj, O=nku, CN=127.0.0.1
        Subject Public Key Info:
            Public Key Algorithm: rsaEncryption
                RSA Public-Key: (2048 bit)
                Modulus:
                    00:c1:db:bf:f1:22:56:be:66:82:fd:e1:f8:5f:bf:
                    1d:24:f9:3b:d1:b7:4d:7e:9c:2b:37:df:bc:65:46:
                    fd:d7:bd:06:75:a4:01:e8:53:d0:f0:31:af:49:7d:
                    6e:f2:8b:37:3d:00:f9:a4:87:63:91:81:5e:ad:e9:
                    4b:df:83:21:9c:89:8f:44:12:fb:de:f2:29:4a:1d:
                    fa:4c:05:25:5c:20:7c:8d:ab:ef:a0:e6:93:f2:03:
                    89:ec:1a:9b:53:58:2c:c4:07:8e:c4:fe:24:8b:10:
                    fa:44:31:c6:e2:3a:03:91:26:55:7d:a7:2d:7f:3d:
                    4c:99:27:61:cd:d8:c3:3f:eb:60:b5:5e:c9:1d:9c:
                    2a:2c:7e:bd:f1:c0:6e:22:98:a1:0f:98:58:73:bb:
                    63:6a:1c:90:e2:84:c0:c2:e2:c9:d3:b0:0f:15:fa:
                    48:62:39:a9:86:cd:fd:81:4a:d6:8d:9e:1a:4a:16:
                    56:ff:9c:23:43:62:a1:8d:47:97:27:b2:7d:f0:6f:
                    a8:d4:1a:ae:56:49:98:1f:f8:96:ed:54:f4:99:53:
                    10:1b:7b:1a:64:b4:79:0f:c1:41:ba:fa:78:ea:e8:
                    74:86:6c:48:1b:25:49:b9:95:89:53:b5:aa:fc:46:
                    9b:66:a5:ca:2c:aa:f6:69:0b:bd:cf:87:42:38:36:
                    0e:25
                Exponent: 65537 (0x10001)
        X509v3 extensions:
            X509v3 Basic Constraints: 
                CA:FALSE
            Netscape Comment: 
                OpenSSL Generated Certificate
            X509v3 Subject Key Identifier: 
                EF:97:71:B8:F0:4C:96:12:0D:65:C4:70:68:C3:53:72:81:F0:9D:1F
            X509v3 Authority Key Identifier: 
                keyid:AC:6E:D2:49:1E:A3:94:0A:A9:12:A7:B7:B4:16:79:28:0C:6B:A3:2E

    Signature Algorithm: sha256WithRSAEncryption
         b9:df:26:e9:c0:38:36:98:3d:3d:6e:79:f2:7e:ea:b1:86:b8:
         98:f3:cc:8b:be:32:fc:20:a5:26:7b:cd:eb:cc:73:7b:b6:b1:
         e3:e4:90:72:a2:44:12:eb:08:9a:d2:08:70:c5:17:9e:73:50:
         22:d3:a5:45:55:a0:c6:35:a7:d1:fc:c2:34:08:bb:5f:62:b9:
         01:61:34:76:33:ba:80:91:dc:bc:59:04:1b:98:7f:e7:b8:9b:
         29:c6:e9:b7:ff:17:13:b0:46:0b:9a:52:0f:d4:f3:e3:5e:c1:
         a3:92:a5:5f:d0:37:82:b6:fe:01:cc:99:ea:ba:89:12:0e:89:
         d2:cb:d4:a4:f0:d8:f0:a3:a7:2f:c7:e6:ad:9e:18:48:bd:f6:
         bf:d0:82:23:d2:c4:52:56:4a:9c:a1:73:0c:72:2c:47:89:69:
         ca:e4:2c:25:44:57:9d:b0:0a:1f:53:f2:eb:f0:58:16:1e:05:
         a4:bf:1f:ac:6f:3c:de:f9:af:92:9e:36:3c:70:b3:1a:aa:ee:
         9f:5a:0a:e4:79:8a:2f:fa:1a:3e:90:b5:2c:e7:0d:11:f4:54:
         2f:de:ad:4a:67:77:8f:4e:05:5c:3f:5e:37:da:95:63:a2:9e:
         e9:56:9d:ad:5f:e1:85:a8:6d:95:55:00:c3:a8:13:ce:d1:f2:
         98:57:0a:19
-----BEGIN CERTIFICATE-----
MIIDZzCCAk+gAwIBAgIBATANBgkqhkiG9w0BAQsFADA1MQswCQYDVQQGEwJjbjEL
MAkGA1UECAwCdGoxCzAJBgNVBAcMAnRqMQwwCgYDVQQKDANua3UwHhcNMjIwNTAz
MDcyNzQzWhcNMjMwNTAzMDcyNzQzWjA8MQswCQYDVQQGEwJjbjELMAkGA1UECAwC
dGoxDDAKBgNVBAoMA25rdTESMBAGA1UEAwwJMTI3LjAuMC4xMIIBIjANBgkqhkiG
9w0BAQEFAAOCAQ8AMIIBCgKCAQEAwdu/8SJWvmaC/eH4X78dJPk70bdNfpwrN9+8
ZUb9170GdaQB6FPQ8DGvSX1u8os3PQD5pIdjkYFerelL34MhnImPRBL73vIpSh36
TAUlXCB8javvoOaT8gOJ7BqbU1gsxAeOxP4kixD6RDHG4joDkSZVfactfz1MmSdh
zdjDP+tgtV7JHZwqLH698cBuIpihD5hYc7tjahyQ4oTAwuLJ07APFfpIYjmphs39
gUrWjZ4aShZW/5wjQ2KhjUeXJ7J98G+o1BquVkmYH/iW7VT0mVMQG3saZLR5D8FB
uvp46uh0hmxIGyVJuZWJU7Wq/EabZqXKLKr2aQu9z4dCODYOJQIDAQABo3sweTAJ
BgNVHRMEAjAAMCwGCWCGSAGG+EIBDQQfFh1PcGVuU1NMIEdlbmVyYXRlZCBDZXJ0
aWZpY2F0ZTAdBgNVHQ4EFgQU75dxuPBMlhINZcRwaMNTcoHwnR8wHwYDVR0jBBgw
FoAUrG7SSR6jlAqpEqe3tBZ5KAxroy4wDQYJKoZIhvcNAQELBQADggEBALnfJunA
ODaYPT1uefJ+6rGGuJjzzIu+MvwgpSZ7zevMc3u2sePkkHKiRBLrCJrSCHDFF55z
UCLTpUVVoMY1p9H8wjQIu19iuQFhNHYzuoCR3LxZBBuYf+e4mynG6bf/FxOwRgua
Ug/U8+NewaOSpV/QN4K2/gHMmeq6iRIOidLL1KTw2PCjpy/H5q2eGEi99r/QgiPS
xFJWSpyhcwxyLEeJacrkLCVEV52wCh9T8uvwWBYeBaS/H6xvPN75r5KeNjxwsxqq
7p9aCuR5ii/6Gj6QtSznDRH0VC/erUpnd49OBVw/XjfalWOinulWna1f4YWobZVV
AMOoE87R8phXChk=
-----END CERTIFICATE-----
